; Function Attrs: nounwind sspstrong uwtable
define i64 @date__rfc2822(i64 noundef %0) local_unnamed_addr #0 {
  %2 = alloca [9 x i64], align 16
  %3 = tail call i64 @rb_backref_get() #13
  tail call void @rb_match_busy(i64 noundef %3) #13
  %4 = tail call i64 @rb_hash_new() #13
  %5 = load i64, ptr @rfc2822.pat, align 8, !tbaa !6
  %6 = icmp eq i64 %5, 4
  br i1 %6, label %7, label %10

7:                                                ; preds = %1
  %8 = tail call i64 @rb_reg_new(ptr noundef nonnull @rfc2822.pat_source, i64 noundef 214, i32 noundef 1) #13
  %9 = tail call i64 @rb_obj_freeze(i64 noundef %8) #13
  tail call void @rb_gc_register_mark_object(i64 noundef %8) #13
  store i64 %8, ptr @rfc2822.pat, align 8, !tbaa !6
  br label %10

10:                                               ; preds = %7, %1
  %11 = phi i64 [ %8, %7 ], [ %5, %1 ]
  %.pr.i.i.i = load i64, ptr @match.rbimpl_id, align 8, !tbaa !6
  %.not4.i.i.i = icmp eq i64 %.pr.i.i.i, 0
  br i1 %.not4.i.i.i, label %.lr.ph.i.i.i, label %rbimpl_intern_const.exit.i.i

.lr.ph.i.i.i:                                     ; preds = %10, %.lr.ph.i.i.i
  %12 = tail call i64 @rb_intern2(ptr noundef nonnull @.str.41, i64 noundef 5) #13
  store i64 %12, ptr @match.rbimpl_id, align 8, !tbaa !6
  %.not.i.i.i = icmp eq i64 %12, 0
  br i1 %.not.i.i.i, label %.lr.ph.i.i.i, label %rbimpl_intern_const.exit.i.i, !llvm.loop !36

rbimpl_intern_const.exit.i.i:                     ; preds = %.lr.ph.i.i.i, %10
  %.lcssa.i.i.i = phi i64 [ %.pr.i.i.i, %10 ], [ %12, %.lr.ph.i.i.i ]
  %13 = tail call i64 (i64, i64, i32, ...) @rb_funcall(i64 noundef %11, i64 noundef %.lcssa.i.i.i, i32 noundef 1, i64 noundef %0) #13
  %14 = icmp eq i64 %13, 4
  br i1 %14, label %rfc2822.exit, label %15

15:                                               ; preds = %rbimpl_intern_const.exit.i.i
  call void @llvm.lifetime.start.p0(i64 72, ptr nonnull %2) #13
  br label %16

16:                                               ; preds = %16, %15
  %indvars.iv.i.i = phi i64 [ 1, %15 ], [ %indvars.iv.next.i.i, %16 ]
  %17 = trunc nuw nsw i64 %indvars.iv.i.i to i32
  %18 = tail call i64 @rb_reg_nth_match(i32 noundef %17, i64 noundef %13) #13
  %19 = getelementptr inbounds nuw [9 x i64], ptr %2, i64 0, i64 %indvars.iv.i.i
  store i64 %18, ptr %19, align 8, !tbaa !6
  %indvars.iv.next.i.i = add nuw nsw i64 %indvars.iv.i.i, 1
  %exitcond.not.i.i = icmp eq i64 %indvars.iv.next.i.i, 9
  br i1 %exitcond.not.i.i, label %20, label %16, !llvm.loop !104

20:                                               ; preds = %16
  %21 = getelementptr inbounds nuw i8, ptr %2, i64 8
  %22 = load i64, ptr %21, align 8, !tbaa !6
  %23 = icmp eq i64 %22, 4
  br i1 %23, label %42, label %24

24:                                               ; preds = %20
  %.pr.i.i2.i = load i64, ptr @rfc2822_cb.rbimpl_id, align 8, !tbaa !6
  %.not4.i.i3.i = icmp eq i64 %.pr.i.i2.i, 0
  br i1 %.not4.i.i3.i, label %.lr.ph.i.i7.i, label %rbimpl_intern_const.exit.i4.i

.lr.ph.i.i7.i:                                    ; preds = %24, %.lr.ph.i.i7.i
  %25 = tail call i64 @rb_intern2(ptr noundef nonnull @.str.48, i64 noundef 4) #13
  store i64 %25, ptr @rfc2822_cb.rbimpl_id, align 8, !tbaa !6
  %.not.i.i8.i = icmp eq i64 %25, 0
  br i1 %.not.i.i8.i, label %.lr.ph.i.i7.i, label %rbimpl_intern_const.exit.i4.i, !llvm.loop !36

rbimpl_intern_const.exit.i4.i:                    ; preds = %.lr.ph.i.i7.i, %24
  %.lcssa.i.i5.i = phi i64 [ %.pr.i.i2.i, %24 ], [ %25, %.lr.ph.i.i7.i ]
  %26 = tail call i64 @rb_id2sym(i64 noundef %.lcssa.i.i5.i) #13
  %27 = inttoptr i64 %22 to ptr
  %28 = load i64, ptr %27, align 8, !tbaa !13, !noalias !105
  %29 = and i64 %28, 8192
  %.not.i.i.i.i.i = icmp eq i64 %29, 0
  %30 = getelementptr inbounds nuw i8, ptr %27, i64 24
  br i1 %.not.i.i.i.i.i, label %RSTRING_PTR.exit.us.i.i.i, label %.split.i.i.i

RSTRING_PTR.exit.us.i.i.i:                        ; preds = %rbimpl_intern_const.exit.i4.i, %34
  %indvars.iv11.i.i.i = phi i64 [ %indvars.iv.next12.i.i.i, %34 ], [ 0, %rbimpl_intern_const.exit.i4.i ]
  %31 = getelementptr inbounds nuw [7 x [4 x i8]], ptr @abbr_days, i64 0, i64 %indvars.iv11.i.i.i
  %32 = tail call i32 @rb_st_locale_insensitive_strncasecmp(ptr noundef nonnull %31, ptr noundef nonnull %30, i64 noundef 3) #12
  %33 = icmp eq i32 %32, 0
  br i1 %33, label %day_num.exit.i.i, label %34

34:                                               ; preds = %RSTRING_PTR.exit.us.i.i.i
  %indvars.iv.next12.i.i.i = add nuw nsw i64 %indvars.iv11.i.i.i, 1
  %exitcond14.not.i.i.i = icmp eq i64 %indvars.iv.next12.i.i.i, 7
  br i1 %exitcond14.not.i.i.i, label %day_num.exit.i.i, label %RSTRING_PTR.exit.us.i.i.i, !llvm.loop !108

.split.i.i.i:                                     ; preds = %rbimpl_intern_const.exit.i4.i
  %.sroa.2.0.copyload.i.i.i.i = load ptr, ptr %30, align 8
  br label %RSTRING_PTR.exit.i.i.i

RSTRING_PTR.exit.i.i.i:                           ; preds = %38, %.split.i.i.i
  %indvars.iv.i.i.i = phi i64 [ 0, %.split.i.i.i ], [ %indvars.iv.next.i.i.i, %38 ]
  %35 = getelementptr inbounds nuw [7 x [4 x i8]], ptr @abbr_days, i64 0, i64 %indvars.iv.i.i.i
  %36 = tail call i32 @rb_st_locale_insensitive_strncasecmp(ptr noundef nonnull %35, ptr noundef %.sroa.2.0.copyload.i.i.i.i, i64 noundef 3) #12
  %37 = icmp eq i32 %36, 0
  br i1 %37, label %day_num.exit.i.i, label %38

38:                                               ; preds = %RSTRING_PTR.exit.i.i.i
  %indvars.iv.next.i.i.i = add nuw nsw i64 %indvars.iv.i.i.i, 1
  %exitcond.not.i.i.i = icmp eq i64 %indvars.iv.next.i.i.i, 7
  br i1 %exitcond.not.i.i.i, label %day_num.exit.i.i, label %RSTRING_PTR.exit.i.i.i, !llvm.loop !108

day_num.exit.i.i:                                 ; preds = %38, %RSTRING_PTR.exit.i.i.i, %34, %RSTRING_PTR.exit.us.i.i.i
  %.us-phi.i.i.i = phi i64 [ %indvars.iv11.i.i.i, %RSTRING_PTR.exit.us.i.i.i ], [ 7, %34 ], [ %indvars.iv.i.i.i, %RSTRING_PTR.exit.i.i.i ], [ 7, %38 ]
  %sext.i.i = shl i64 %.us-phi.i.i.i, 32
  %39 = ashr exact i64 %sext.i.i, 31
  %40 = or disjoint i64 %39, 1
  %41 = tail call i64 @rb_hash_aset(i64 noundef %4, i64 noundef %26, i64 noundef %40) #13
  br label %42

42:                                               ; preds = %day_num.exit.i.i, %20
  %.pr.i26.i.i = load i64, ptr @rfc2822_cb.rbimpl_id.201, align 8, !tbaa !6
  %.not4.i27.i.i = icmp eq i64 %.pr.i26.i.i, 0
  br i1 %.not4.i27.i.i, label %.lr.ph.i29.i.i, label %rbimpl_intern_const.exit31.i.i

.lr.ph.i29.i.i:                                   ; preds = %42, %.lr.ph.i29.i.i
  %43 = tail call i64 @rb_intern2(ptr noundef nonnull @.str.65, i64 noundef 4) #13
  store i64 %43, ptr @rfc2822_cb.rbimpl_id.201, align 8, !tbaa !6
  %.not.i30.i.i = icmp eq i64 %43, 0
  br i1 %.not.i30.i.i, label %.lr.ph.i29.i.i, label %rbimpl_intern_const.exit31.i.i, !llvm.loop !36

rbimpl_intern_const.exit31.i.i:                   ; preds = %.lr.ph.i29.i.i, %42
  %.lcssa.i28.i.i = phi i64 [ %.pr.i26.i.i, %42 ], [ %43, %.lr.ph.i29.i.i ]
  %44 = tail call i64 @rb_id2sym(i64 noundef %.lcssa.i28.i.i) #13
  %45 = getelementptr inbounds nuw i8, ptr %2, i64 16
  %46 = load i64, ptr %45, align 16, !tbaa !6
  %47 = tail call i64 @rb_str_to_inum(i64 noundef %46, i32 noundef 10, i32 noundef 0) #13
  %48 = tail call i64 @rb_hash_aset(i64 noundef %4, i64 noundef %44, i64 noundef %47) #13
  %.pr.i32.i.i = load i64, ptr @rfc2822_cb.rbimpl_id.202, align 8, !tbaa !6
  %.not4.i33.i.i = icmp eq i64 %.pr.i32.i.i, 0
  br i1 %.not4.i33.i.i, label %.lr.ph.i35.i.i, label %rbimpl_intern_const.exit37.i.i

.lr.ph.i35.i.i:                                   ; preds = %rbimpl_intern_const.exit31.i.i, %.lr.ph.i35.i.i
  %49 = tail call i64 @rb_intern2(ptr noundef nonnull @.str.63, i64 noundef 3) #13
  store i64 %49, ptr @rfc2822_cb.rbimpl_id.202, align 8, !tbaa !6
  %.not.i36.i.i = icmp eq i64 %49, 0
  br i1 %.not.i36.i.i, label %.lr.ph.i35.i.i, label %rbimpl_intern_const.exit37.i.i, !llvm.loop !36

rbimpl_intern_const.exit37.i.i:                   ; preds = %.lr.ph.i35.i.i, %rbimpl_intern_const.exit31.i.i
  %.lcssa.i34.i.i = phi i64 [ %.pr.i32.i.i, %rbimpl_intern_const.exit31.i.i ], [ %49, %.lr.ph.i35.i.i ]
  %50 = tail call i64 @rb_id2sym(i64 noundef %.lcssa.i34.i.i) #13
  %51 = getelementptr inbounds nuw i8, ptr %2, i64 24
  %52 = load i64, ptr %51, align 8, !tbaa !6
  %53 = inttoptr i64 %52 to ptr
  %54 = load i64, ptr %53, align 8, !tbaa !13, !noalias !109
  %55 = and i64 %54, 8192
  %.not.i.i.i38.i.i = icmp eq i64 %55, 0
  %56 = getelementptr inbounds nuw i8, ptr %53, i64 24
  br i1 %.not.i.i.i38.i.i, label %RSTRING_PTR.exit.us.i47.i.i, label %.split.i39.i.i

RSTRING_PTR.exit.us.i47.i.i:                      ; preds = %rbimpl_intern_const.exit37.i.i, %60
  %indvars.iv11.i48.i.i = phi i64 [ %indvars.iv.next12.i49.i.i, %60 ], [ 0, %rbimpl_intern_const.exit37.i.i ]
  %57 = getelementptr inbounds nuw [12 x [4 x i8]], ptr @abbr_months, i64 0, i64 %indvars.iv11.i48.i.i
  %58 = tail call i32 @rb_st_locale_insensitive_strncasecmp(ptr noundef nonnull %57, ptr noundef nonnull %56, i64 noundef 3) #12
  %59 = icmp eq i32 %58, 0
  br i1 %59, label %mon_num.exit.i.i, label %60

60:                                               ; preds = %RSTRING_PTR.exit.us.i47.i.i
  %indvars.iv.next12.i49.i.i = add nuw nsw i64 %indvars.iv11.i48.i.i, 1
  %exitcond14.not.i50.i.i = icmp eq i64 %indvars.iv.next12.i49.i.i, 12
  br i1 %exitcond14.not.i50.i.i, label %mon_num.exit.i.i, label %RSTRING_PTR.exit.us.i47.i.i, !llvm.loop !112

.split.i39.i.i:                                   ; preds = %rbimpl_intern_const.exit37.i.i
  %.sroa.2.0.copyload.i.i40.i.i = load ptr, ptr %56, align 8
  br label %RSTRING_PTR.exit.i41.i.i

RSTRING_PTR.exit.i41.i.i:                         ; preds = %64, %.split.i39.i.i
  %indvars.iv.i42.i.i = phi i64 [ 0, %.split.i39.i.i ], [ %indvars.iv.next.i43.i.i, %64 ]
  %61 = getelementptr inbounds nuw [12 x [4 x i8]], ptr @abbr_months, i64 0, i64 %indvars.iv.i42.i.i
  %62 = tail call i32 @rb_st_locale_insensitive_strncasecmp(ptr noundef nonnull %61, ptr noundef %.sroa.2.0.copyload.i.i40.i.i, i64 noundef 3) #12
  %63 = icmp eq i32 %62, 0
  br i1 %63, label %mon_num.exit.i.i, label %64

64:                                               ; preds = %RSTRING_PTR.exit.i41.i.i
  %indvars.iv.next.i43.i.i = add nuw nsw i64 %indvars.iv.i42.i.i, 1
  %exitcond.not.i44.i.i = icmp eq i64 %indvars.iv.next.i43.i.i, 12
  br i1 %exitcond.not.i44.i.i, label %mon_num.exit.i.i, label %RSTRING_PTR.exit.i41.i.i, !llvm.loop !112

mon_num.exit.i.i:                                 ; preds = %64, %RSTRING_PTR.exit.i41.i.i, %60, %RSTRING_PTR.exit.us.i47.i.i
  %.us-phi.i45.i.i = phi i64 [ %indvars.iv11.i48.i.i, %RSTRING_PTR.exit.us.i47.i.i ], [ 12, %60 ], [ %indvars.iv.i42.i.i, %RSTRING_PTR.exit.i41.i.i ], [ 12, %64 ]
  %65 = shl i64 %.us-phi.i45.i.i, 32
  %sext89.i.i = add i64 %65, 4294967296
  %66 = ashr exact i64 %sext89.i.i, 31
  %67 = or disjoint i64 %66, 1
  %68 = tail call i64 @rb_hash_aset(i64 noundef %4, i64 noundef %50, i64 noundef %67) #13
  %69 = getelementptr inbounds nuw i8, ptr %2, i64 32
  %70 = load i64, ptr %69, align 16, !tbaa !6
  %71 = tail call i64 @rb_str_to_inum(i64 noundef %70, i32 noundef 10, i32 noundef 0) #13
  %72 = inttoptr i64 %70 to ptr
  %73 = getelementptr inbounds nuw i8, ptr %72, i64 16
  %74 = load i64, ptr %73, align 8, !tbaa !10
  %75 = icmp slt i64 %74, 4
  br i1 %75, label %76, label %80

76:                                               ; preds = %mon_num.exit.i.i
  %.pr.i.i.i.i = load i64, ptr @comp_year50.rbimpl_id, align 8, !tbaa !6
  %.not4.i.i.i.i = icmp eq i64 %.pr.i.i.i.i, 0
  br i1 %.not4.i.i.i.i, label %.lr.ph.i.i.i.i, label %comp_year50.exit.i.i

.lr.ph.i.i.i.i:                                   ; preds = %76, %.lr.ph.i.i.i.i
  %77 = tail call i64 @rb_intern2(ptr noundef nonnull @.str.24, i64 noundef 2) #13
  store i64 %77, ptr @comp_year50.rbimpl_id, align 8, !tbaa !6
  %.not.i.i.i.i = icmp eq i64 %77, 0
  br i1 %.not.i.i.i.i, label %.lr.ph.i.i.i.i, label %comp_year50.exit.i.i, !llvm.loop !36

comp_year50.exit.i.i:                             ; preds = %.lr.ph.i.i.i.i, %76
  %.lcssa.i.i.i.i = phi i64 [ %.pr.i.i.i.i, %76 ], [ %77, %.lr.ph.i.i.i.i ]
  %78 = tail call i64 (i64, i64, i32, ...) @rb_funcall(i64 noundef %71, i64 noundef %.lcssa.i.i.i.i, i32 noundef 1, i64 noundef 101) #13
  %.not.i52.i.i = icmp eq i64 %78, 0
  %..i.i.i = select i1 %.not.i52.i.i, i64 4001, i64 3801
  %79 = tail call i64 (i64, i64, i32, ...) @rb_funcall(i64 noundef %71, i64 noundef 43, i32 noundef 1, i64 noundef %..i.i.i) #13
  br label %80

80:                                               ; preds = %comp_year50.exit.i.i, %mon_num.exit.i.i
  %.0.i6.i = phi i64 [ %79, %comp_year50.exit.i.i ], [ %71, %mon_num.exit.i.i ]
  %.pr.i53.i.i = load i64, ptr @rfc2822_cb.rbimpl_id.203, align 8, !tbaa !6
  %.not4.i54.i.i = icmp eq i64 %.pr.i53.i.i, 0
  br i1 %.not4.i54.i.i, label %.lr.ph.i56.i.i, label %rbimpl_intern_const.exit58.i.i

.lr.ph.i56.i.i:                                   ; preds = %80, %.lr.ph.i56.i.i
  %81 = tail call i64 @rb_intern2(ptr noundef nonnull @.str.18, i64 noundef 4) #13
  store i64 %81, ptr @rfc2822_cb.rbimpl_id.203, align 8, !tbaa !6
  %.not.i57.i.i = icmp eq i64 %81, 0
  br i1 %.not.i57.i.i, label %.lr.ph.i56.i.i, label %rbimpl_intern_const.exit58.i.i, !llvm.loop !36

rbimpl_intern_const.exit58.i.i:                   ; preds = %.lr.ph.i56.i.i, %80
  %.lcssa.i55.i.i = phi i64 [ %.pr.i53.i.i, %80 ], [ %81, %.lr.ph.i56.i.i ]
  %82 = tail call i64 @rb_id2sym(i64 noundef %.lcssa.i55.i.i) #13
  %83 = tail call i64 @rb_hash_aset(i64 noundef %4, i64 noundef %82, i64 noundef %.0.i6.i) #13
  %.pr.i59.i.i = load i64, ptr @rfc2822_cb.rbimpl_id.204, align 8, !tbaa !6
  %.not4.i60.i.i = icmp eq i64 %.pr.i59.i.i, 0
  br i1 %.not4.i60.i.i, label %.lr.ph.i62.i.i, label %rbimpl_intern_const.exit64.i.i

.lr.ph.i62.i.i:                                   ; preds = %rbimpl_intern_const.exit58.i.i, %.lr.ph.i62.i.i
  %84 = tail call i64 @rb_intern2(ptr noundef nonnull @.str.52, i64 noundef 4) #13
  store i64 %84, ptr @rfc2822_cb.rbimpl_id.204, align 8, !tbaa !6
  %.not.i63.i.i = icmp eq i64 %84, 0
  br i1 %.not.i63.i.i, label %.lr.ph.i62.i.i, label %rbimpl_intern_const.exit64.i.i, !llvm.loop !36

rbimpl_intern_const.exit64.i.i:                   ; preds = %.lr.ph.i62.i.i, %rbimpl_intern_const.exit58.i.i
  %.lcssa.i61.i.i = phi i64 [ %.pr.i59.i.i, %rbimpl_intern_const.exit58.i.i ], [ %84, %.lr.ph.i62.i.i ]
  %85 = tail call i64 @rb_id2sym(i64 noundef %.lcssa.i61.i.i) #13
  %86 = getelementptr inbounds nuw i8, ptr %2, i64 40
  %87 = load i64, ptr %86, align 8, !tbaa !6
  %88 = tail call i64 @rb_str_to_inum(i64 noundef %87, i32 noundef 10, i32 noundef 0) #13
  %89 = tail call i64 @rb_hash_aset(i64 noundef %4, i64 noundef %85, i64 noundef %88) #13
  %.pr.i65.i.i = load i64, ptr @rfc2822_cb.rbimpl_id.205, align 8, !tbaa !6
  %.not4.i66.i.i = icmp eq i64 %.pr.i65.i.i, 0
  br i1 %.not4.i66.i.i, label %.lr.ph.i68.i.i, label %rbimpl_intern_const.exit70.i.i

.lr.ph.i68.i.i:                                   ; preds = %rbimpl_intern_const.exit64.i.i, %.lr.ph.i68.i.i
  %90 = tail call i64 @rb_intern2(ptr noundef nonnull @.str.54, i64 noundef 3) #13
  store i64 %90, ptr @rfc2822_cb.rbimpl_id.205, align 8, !tbaa !6
  %.not.i69.i.i = icmp eq i64 %90, 0
  br i1 %.not.i69.i.i, label %.lr.ph.i68.i.i, label %rbimpl_intern_const.exit70.i.i, !llvm.loop !36

rbimpl_intern_const.exit70.i.i:                   ; preds = %.lr.ph.i68.i.i, %rbimpl_intern_const.exit64.i.i
  %.lcssa.i67.i.i = phi i64 [ %.pr.i65.i.i, %rbimpl_intern_const.exit64.i.i ], [ %90, %.lr.ph.i68.i.i ]
  %91 = tail call i64 @rb_id2sym(i64 noundef %.lcssa.i67.i.i) #13
  %92 = getelementptr inbounds nuw i8, ptr %2, i64 48
  %93 = load i64, ptr %92, align 16, !tbaa !6
  %94 = tail call i64 @rb_str_to_inum(i64 noundef %93, i32 noundef 10, i32 noundef 0) #13
  %95 = tail call i64 @rb_hash_aset(i64 noundef %4, i64 noundef %91, i64 noundef %94) #13
  %96 = getelementptr inbounds nuw i8, ptr %2, i64 56
  %97 = load i64, ptr %96, align 8, !tbaa !6
  %98 = icmp eq i64 %97, 4
  br i1 %98, label %104, label %99

99:                                               ; preds = %rbimpl_intern_const.exit70.i.i
  %.pr.i71.i.i = load i64, ptr @rfc2822_cb.rbimpl_id.206, align 8, !tbaa !6
  %.not4.i72.i.i = icmp eq i64 %.pr.i71.i.i, 0
  br i1 %.not4.i72.i.i, label %.lr.ph.i74.i.i, label %rbimpl_intern_const.exit76.i.i

.lr.ph.i74.i.i:                                   ; preds = %99, %.lr.ph.i74.i.i
  %100 = tail call i64 @rb_intern2(ptr noundef nonnull @.str.56, i64 noundef 3) #13
  store i64 %100, ptr @rfc2822_cb.rbimpl_id.206, align 8, !tbaa !6
  %.not.i75.i.i = icmp eq i64 %100, 0
  br i1 %.not.i75.i.i, label %.lr.ph.i74.i.i, label %rbimpl_intern_const.exit76.i.i, !llvm.loop !36

rbimpl_intern_const.exit76.i.i:                   ; preds = %.lr.ph.i74.i.i, %99
  %.lcssa.i73.i.i = phi i64 [ %.pr.i71.i.i, %99 ], [ %100, %.lr.ph.i74.i.i ]
  %101 = tail call i64 @rb_id2sym(i64 noundef %.lcssa.i73.i.i) #13
  %102 = tail call i64 @rb_str_to_inum(i64 noundef %97, i32 noundef 10, i32 noundef 0) #13
  %103 = tail call i64 @rb_hash_aset(i64 noundef %4, i64 noundef %101, i64 noundef %102) #13
  br label %104

104:                                              ; preds = %rbimpl_intern_const.exit76.i.i, %rbimpl_intern_const.exit70.i.i
  %.pr.i77.i.i = load i64, ptr @rfc2822_cb.rbimpl_id.207, align 8, !tbaa !6
  %.not4.i78.i.i = icmp eq i64 %.pr.i77.i.i, 0
  br i1 %.not4.i78.i.i, label %.lr.ph.i80.i.i, label %rbimpl_intern_const.exit82.i.i

.lr.ph.i80.i.i:                                   ; preds = %104, %.lr.ph.i80.i.i
  %105 = tail call i64 @rb_intern2(ptr noundef nonnull @.str.37, i64 noundef 4) #13
  store i64 %105, ptr @rfc2822_cb.rbimpl_id.207, align 8, !tbaa !6
  %.not.i81.i.i = icmp eq i64 %105, 0
  br i1 %.not.i81.i.i, label %.lr.ph.i80.i.i, label %rbimpl_intern_const.exit82.i.i, !llvm.loop !36

rbimpl_intern_const.exit82.i.i:                   ; preds = %.lr.ph.i80.i.i, %104
  %.lcssa.i79.i.i = phi i64 [ %.pr.i77.i.i, %104 ], [ %105, %.lr.ph.i80.i.i ]
  %106 = tail call i64 @rb_id2sym(i64 noundef %.lcssa.i79.i.i) #13
  %107 = getelementptr inbounds nuw i8, ptr %2, i64 64
  %108 = load i64, ptr %107, align 16, !tbaa !6
  %109 = tail call i64 @rb_hash_aset(i64 noundef %4, i64 noundef %106, i64 noundef %108) #13
  %.pr.i83.i.i = load i64, ptr @rfc2822_cb.rbimpl_id.208, align 8, !tbaa !6
  %.not4.i84.i.i = icmp eq i64 %.pr.i83.i.i, 0
  br i1 %.not4.i84.i.i, label %.lr.ph.i86.i.i, label %rfc2822_cb.exit.i

.lr.ph.i86.i.i:                                   ; preds = %rbimpl_intern_const.exit82.i.i, %.lr.ph.i86.i.i
  %110 = tail call i64 @rb_intern2(ptr noundef nonnull @.str.39, i64 noundef 6) #13
  store i64 %110, ptr @rfc2822_cb.rbimpl_id.208, align 8, !tbaa !6
  %.not.i87.i.i = icmp eq i64 %110, 0
  br i1 %.not.i87.i.i, label %.lr.ph.i86.i.i, label %rfc2822_cb.exit.i, !llvm.loop !36

rfc2822_cb.exit.i:                                ; preds = %.lr.ph.i86.i.i, %rbimpl_intern_const.exit82.i.i
  %.lcssa.i85.i.i = phi i64 [ %.pr.i83.i.i, %rbimpl_intern_const.exit82.i.i ], [ %110, %.lr.ph.i86.i.i ]
  %111 = tail call i64 @rb_id2sym(i64 noundef %.lcssa.i85.i.i) #13
  %112 = tail call i64 @date_zone_to_diff(i64 noundef %108)
  %113 = tail call i64 @rb_hash_aset(i64 noundef %4, i64 noundef %111, i64 noundef %112) #13
  call void @llvm.lifetime.end.p0(i64 72, ptr nonnull %2) #13
  br label %rfc2822.exit

rfc2822.exit:                                     ; preds = %rbimpl_intern_const.exit.i.i, %rfc2822_cb.exit.i
  tail call void @rb_backref_set(i64 noundef %3) #13
  ret i64 %4
}